target datalayout = "e-m:e-p270:32:32-p271:32:32-p272:64:64-i64:64-i128:128-f80:128-n8:16:32:64-S128"
target triple = "x86_64-pc-linux-gnu"

%struct._t38_packet_info = type { i16, i32, i32, i32, i32, i32, i8, [128 x i8], [128 x i8], double, i32 }
%struct._address = type { i32, i32, ptr, ptr }
%struct._packet_info = type { ptr, ptr, i32, i32, %struct.nstime_t, %struct.nstime_t, %struct.nstime_t, i8, ptr, ptr, ptr, ptr, %struct._address, %struct._address, %struct._address, %struct._address, %struct._address, %struct._address, i32, ptr, i8, [3 x i8], %struct.anon, i32, i32, i32, i32, ptr, i8, ptr, ptr, i16, i16, i32, i32, i16, i32, i32, ptr, ptr, ptr, i8, i8, i16, i16, i16, i32, i16, i16, ptr, ptr, ptr, ptr, ptr, i32, i32 }
%struct.nstime_t = type { i64, i32 }
%struct.anon = type { i8, [3 x i8] }
%struct._t38_conv_info = type { i32, i32, i32, i32, i32, i32, i32, double, i32, i32, ptr }
%struct._asn1_ctx_t = type { i32, i32, i8, ptr, ptr, ptr, ptr, ptr, %struct.anon.0, %struct.anon.3, %struct.anon.4, ptr }
%struct.anon.0 = type { i32, i8, i8, i8, ptr, ptr, i32, i32, ptr, ptr, ptr, %union.anon }
%union.anon = type { %struct.anon.1 }
%struct.anon.1 = type { ptr }
%struct.anon.3 = type { ptr, ptr, ptr }
%struct.anon.4 = type { i32, i8, ptr, i32, i32, ptr, ptr, ptr, %union.anon.5 }
%union.anon.5 = type { %struct.anon.6 }
%struct.anon.6 = type { ptr }

@t38_tap = internal global i32 0, align 4
@primary_part = internal global i8 1, align 1
@p_t38_packet_conv = internal global ptr null, align 8
@t38_info = internal global ptr null, align 8
@p_t38_conv = internal global ptr null, align 8
@p_t38_conv_info = internal global ptr null, align 8
@p_t38_packet_conv_info = internal global ptr null, align 8
@seq_number = internal global i32 0, align 4

; Function Attrs: null_pointer_is_valid sspstrong uwtable
define internal i32 @dissect_t38_T_primary_ifp_packet(ptr noundef %0, i32 noundef %1, ptr noundef %2, ptr noundef %3, i32 noundef %4) #0 {
  %6 = alloca ptr, align 8
  %7 = alloca i32, align 4
  %8 = alloca ptr, align 8
  %9 = alloca ptr, align 8
  %10 = alloca i32, align 4
  store ptr %0, ptr %6, align 8
  store i32 %1, ptr %7, align 4
  store ptr %2, ptr %8, align 8
  store ptr %3, ptr %9, align 8
  store i32 %4, ptr %10, align 4
  store i8 1, ptr @primary_part, align 1
  %11 = load ptr, ptr %6, align 8
  %12 = load i32, ptr %7, align 4
  %13 = load ptr, ptr %8, align 8
  %14 = load ptr, ptr %9, align 8
  %15 = load i32, ptr %10, align 4
  %16 = call i32 @dissect_per_open_type(ptr noundef %11, i32 noundef %12, ptr noundef %13, ptr noundef %14, i32 noundef %15, ptr noundef @dissect_t38_IFPPacket)
  store i32 %16, ptr %7, align 4
  %17 = load ptr, ptr @p_t38_packet_conv, align 8
  %18 = icmp ne ptr %17, null
  br i1 %18, label %19, label %55

19:                                               ; preds = %5
  %20 = load ptr, ptr %8, align 8
  %21 = getelementptr inbounds nuw %struct._asn1_ctx_t, ptr %20, i32 0, i32 3
  %22 = load ptr, ptr %21, align 8
  %23 = getelementptr inbounds nuw %struct._packet_info, ptr %22, i32 0, i32 22
  %24 = load i8, ptr %23, align 4
  %25 = and i8 %24, 1
  %26 = zext i8 %25 to i32
  %27 = icmp ne i32 %26, 0
  br i1 %27, label %55, label %28

28:                                               ; preds = %19
  %29 = load i32, ptr @seq_number, align 4
  %30 = load ptr, ptr @p_t38_packet_conv_info, align 8
  %31 = getelementptr inbounds nuw %struct._t38_conv_info, ptr %30, i32 0, i32 4
  %32 = load i32, ptr %31, align 8
  %33 = icmp ne i32 %29, %32
  br i1 %33, label %34, label %55

34:                                               ; preds = %28
  %35 = load ptr, ptr @t38_info, align 8
  %36 = getelementptr inbounds nuw %struct._t38_packet_info, ptr %35, i32 0, i32 1
  %37 = load i32, ptr %36, align 4
  %38 = icmp eq i32 %37, 1
  br i1 %38, label %39, label %49

39:                                               ; preds = %34
  %40 = load ptr, ptr @t38_info, align 8
  %41 = getelementptr inbounds nuw %struct._t38_packet_info, ptr %40, i32 0, i32 5
  %42 = load i32, ptr %41, align 4
  %43 = icmp eq i32 %42, 7
  br i1 %43, label %44, label %49

44:                                               ; preds = %39
  %45 = load ptr, ptr @t38_info, align 8
  %46 = getelementptr inbounds nuw %struct._t38_packet_info, ptr %45, i32 0, i32 10
  %47 = load i32, ptr %46, align 8
  %48 = icmp eq i32 %47, 0
  br i1 %48, label %55, label %49

49:                                               ; preds = %44, %39, %34
  %50 = load i32, ptr @t38_tap, align 4
  %51 = load ptr, ptr %8, align 8
  %52 = getelementptr inbounds nuw %struct._asn1_ctx_t, ptr %51, i32 0, i32 3
  %53 = load ptr, ptr %52, align 8
  %54 = load ptr, ptr @t38_info, align 8
  call void @tap_queue_packet(i32 noundef %50, ptr noundef %53, ptr noundef %54)
  br label %55

55:                                               ; preds = %49, %44, %28, %19, %5
  %56 = load ptr, ptr @p_t38_conv, align 8
  %57 = icmp ne ptr %56, null
  br i1 %57, label %58, label %62

58:                                               ; preds = %55
  %59 = load i32, ptr @seq_number, align 4
  %60 = load ptr, ptr @p_t38_conv_info, align 8
  %61 = getelementptr inbounds nuw %struct._t38_conv_info, ptr %60, i32 0, i32 4
  store i32 %59, ptr %61, align 8
  br label %62

62:                                               ; preds = %58, %55
  %63 = load i32, ptr %7, align 4
  ret i32 %63
}