; Function Attrs: null_pointer_is_valid sspstrong uwtable
define internal i32 @dissect_t38_T_primary_ifp_packet(ptr noundef %0, i32 noundef %1, ptr noundef %2, ptr noundef %3, i32 noundef %4) #0 {
  store i1 false, ptr @primary_part, align 1
  %6 = tail call i32 @dissect_per_open_type(ptr noundef %0, i32 noundef %1, ptr noundef %2, ptr noundef %3, i32 noundef %4, ptr noundef nonnull @dissect_t38_IFPPacket)
  %7 = load ptr, ptr @p_t38_packet_conv, align 8
  %.not = icmp eq ptr %7, null
  br i1 %.not, label %34, label %8

8:                                                ; preds = %5
  %9 = getelementptr inbounds nuw i8, ptr %2, i64 16
  %10 = load ptr, ptr %9, align 8
  %11 = getelementptr inbounds nuw i8, ptr %10, i64 276
  %12 = load i8, ptr %11, align 4
  %13 = and i8 %12, 1
  %.not7 = icmp eq i8 %13, 0
  br i1 %.not7, label %14, label %34

14:                                               ; preds = %8
  %15 = load i32, ptr @seq_number, align 4
  %16 = load ptr, ptr @p_t38_packet_conv_info, align 8
  %17 = getelementptr inbounds nuw i8, ptr %16, i64 16
  %18 = load i32, ptr %17, align 8
  %.not8 = icmp eq i32 %15, %18
  br i1 %.not8, label %34, label %19

19:                                               ; preds = %14
  %20 = load ptr, ptr @t38_info, align 8
  %21 = getelementptr inbounds nuw i8, ptr %20, i64 4
  %22 = load i32, ptr %21, align 4
  %23 = icmp eq i32 %22, 1
  br i1 %23, label %24, label %32

24:                                               ; preds = %19
  %25 = getelementptr inbounds nuw i8, ptr %20, i64 20
  %26 = load i32, ptr %25, align 4
  %27 = icmp eq i32 %26, 7
  br i1 %27, label %28, label %32

28:                                               ; preds = %24
  %29 = getelementptr inbounds nuw i8, ptr %20, i64 296
  %30 = load i32, ptr %29, align 8
  %31 = icmp eq i32 %30, 0
  br i1 %31, label %34, label %32

32:                                               ; preds = %28, %24, %19
  %33 = load i32, ptr @t38_tap, align 4
  tail call void @tap_queue_packet(i32 noundef %33, ptr noundef %10, ptr noundef %20)
  br label %34

34:                                               ; preds = %32, %28, %14, %8, %5
  %35 = load ptr, ptr @p_t38_conv, align 8
  %.not9 = icmp eq ptr %35, null
  br i1 %.not9, label %40, label %36

36:                                               ; preds = %34
  %37 = load i32, ptr @seq_number, align 4
  %38 = load ptr, ptr @p_t38_conv_info, align 8
  %39 = getelementptr inbounds nuw i8, ptr %38, i64 16
  store i32 %37, ptr %39, align 8
  br label %40

40:                                               ; preds = %36, %34
  ret i32 %6
}